; Function Attrs: mustprogress nofree norecurse nosync nounwind willreturn memory(read, argmem: readwrite, inaccessiblemem: none) uwtable
define hidden void @_ZNK6hermes2vm9CodeBlock18getArrayBufferIterEjj(ptr noalias writeonly sret(%"class.hermes::vm::SerializedLiteralParser") align 8 captures(none) initializes((0, 20), (24, 40)) %agg.result, ptr noundef nonnull readonly align 8 captures(none) dereferenceable(40) %this, i32 noundef %idx, i32 noundef %numLiterals) local_unnamed_addr #2 align 2 {
entry:
  %0 = load ptr, ptr %this, align 8
  %bcProvider_.i = getelementptr inbounds nuw i8, ptr %0, i64 80
  %1 = load ptr, ptr %bcProvider_.i, align 8
  %arrayBuffer_.i = getelementptr inbounds nuw i8, ptr %1, i64 72
  %retval.sroa.0.0.copyload.i = load ptr, ptr %arrayBuffer_.i, align 8
  %retval.sroa.2.0.arrayBuffer_.sroa_idx.i = getelementptr inbounds nuw i8, ptr %1, i64 80
  %retval.sroa.2.0.copyload.i = load i64, ptr %retval.sroa.2.0.arrayBuffer_.sroa_idx.i, align 8
  %conv = zext i32 %idx to i64
  %sub.i = sub i64 %retval.sroa.2.0.copyload.i, %conv
  %add.ptr.i.i = getelementptr inbounds nuw i8, ptr %retval.sroa.0.0.copyload.i, i64 %conv
  store ptr %add.ptr.i.i, ptr %agg.result, align 8
  %buff.sroa.2.0.buffer_.sroa_idx.i.i = getelementptr inbounds nuw i8, ptr %agg.result, i64 8
  store i64 %sub.i, ptr %buff.sroa.2.0.buffer_.sroa_idx.i.i, align 8
  %elemsLeft_.i.i = getelementptr inbounds nuw i8, ptr %agg.result, i64 16
  store i32 %numLiterals, ptr %elemsLeft_.i.i, align 8
  %leftInSeq_.i.i = getelementptr inbounds nuw i8, ptr %agg.result, i64 24
  store i32 0, ptr %leftInSeq_.i.i, align 8
  %currIdx_.i.i = getelementptr inbounds nuw i8, ptr %agg.result, i64 28
  store i32 0, ptr %currIdx_.i.i, align 4
  %runtimeModule_.i = getelementptr inbounds nuw i8, ptr %agg.result, i64 32
  store ptr %0, ptr %runtimeModule_.i, align 8
  ret void
}